target datalayout = "e-m:e-p270:32:32-p271:32:32-p272:64:64-i64:64-i128:128-f80:128-n8:16:32:64-S128"
target triple = "x86_64-pc-linux-gnu"

%struct.AVFilterContext = type { ptr, ptr, ptr, ptr, ptr, i32, ptr, ptr, i32, ptr, ptr, i32, i32, ptr, ptr, ptr, ptr, i32, ptr, i32, i32 }
%struct.DrawGraphContext = type { ptr, [4 x ptr], float, float, [4 x ptr], [4 x ptr], [4 x i8], i32, i32, i32, i32, %struct.AVRational, ptr, i32, [4 x i32], [4 x i32], [4 x ptr], [4 x i32], i32, i64 }
%struct.AVRational = type { i32, i32 }

; Function Attrs: cold nounwind optsize uwtable
define internal void @uninit(ptr noundef %0) #0 {
  %2 = alloca ptr, align 8
  %3 = alloca ptr, align 8
  %4 = alloca i32, align 4
  store ptr %0, ptr %2, align 8, !tbaa !4
  call void @llvm.lifetime.start.p0(i64 8, ptr %3) #10
  %5 = load ptr, ptr %2, align 8, !tbaa !4
  %6 = getelementptr inbounds nuw %struct.AVFilterContext, ptr %5, i32 0, i32 9
  %7 = load ptr, ptr %6, align 8, !tbaa !9
  store ptr %7, ptr %3, align 8, !tbaa !22
  call void @llvm.lifetime.start.p0(i64 4, ptr %4) #10
  store i32 0, ptr %4, align 4, !tbaa !31
  br label %8

8:                                                ; preds = %18, %1
  %9 = load i32, ptr %4, align 4, !tbaa !31
  %10 = icmp slt i32 %9, 4
  br i1 %10, label %11, label %21

11:                                               ; preds = %8
  %12 = load ptr, ptr %3, align 8, !tbaa !22
  %13 = getelementptr inbounds nuw %struct.DrawGraphContext, ptr %12, i32 0, i32 5
  %14 = load i32, ptr %4, align 4, !tbaa !31
  %15 = sext i32 %14 to i64
  %16 = getelementptr inbounds [4 x ptr], ptr %13, i64 0, i64 %15
  %17 = load ptr, ptr %16, align 8, !tbaa !38
  call void @av_expr_free(ptr noundef %17)
  br label %18

18:                                               ; preds = %11
  %19 = load i32, ptr %4, align 4, !tbaa !31
  %20 = add nsw i32 %19, 1
  store i32 %20, ptr %4, align 4, !tbaa !31
  br label %8, !llvm.loop !40

21:                                               ; preds = %8
  %22 = load ptr, ptr %3, align 8, !tbaa !22
  %23 = getelementptr inbounds nuw %struct.DrawGraphContext, ptr %22, i32 0, i32 8
  %24 = load i32, ptr %23, align 8, !tbaa !35
  %25 = icmp ne i32 %24, 4
  br i1 %25, label %26, label %29

26:                                               ; preds = %21
  %27 = load ptr, ptr %3, align 8, !tbaa !22
  %28 = getelementptr inbounds nuw %struct.DrawGraphContext, ptr %27, i32 0, i32 12
  call void @av_frame_free(ptr noundef %28)
  br label %29

29:                                               ; preds = %26, %21
  %30 = load ptr, ptr %3, align 8, !tbaa !22
  %31 = getelementptr inbounds nuw %struct.DrawGraphContext, ptr %30, i32 0, i32 16
  %32 = getelementptr inbounds [4 x ptr], ptr %31, i64 0, i64 0
  call void @av_freep(ptr noundef %32)
  %33 = load ptr, ptr %3, align 8, !tbaa !22
  %34 = getelementptr inbounds nuw %struct.DrawGraphContext, ptr %33, i32 0, i32 16
  %35 = getelementptr inbounds [4 x ptr], ptr %34, i64 0, i64 1
  call void @av_freep(ptr noundef %35)
  %36 = load ptr, ptr %3, align 8, !tbaa !22
  %37 = getelementptr inbounds nuw %struct.DrawGraphContext, ptr %36, i32 0, i32 16
  %38 = getelementptr inbounds [4 x ptr], ptr %37, i64 0, i64 2
  call void @av_freep(ptr noundef %38)
  %39 = load ptr, ptr %3, align 8, !tbaa !22
  %40 = getelementptr inbounds nuw %struct.DrawGraphContext, ptr %39, i32 0, i32 16
  %41 = getelementptr inbounds [4 x ptr], ptr %40, i64 0, i64 3
  call void @av_freep(ptr noundef %41)
  call void @llvm.lifetime.end.p0(i64 4, ptr %4) #10
  call void @llvm.lifetime.end.p0(i64 8, ptr %3) #10
  ret void
}