; Function Attrs: cold nounwind optsize uwtable
define internal void @uninit(ptr noundef readonly captures(none) %0) #0 {
  %2 = getelementptr inbounds nuw i8, ptr %0, i64 72
  %3 = load ptr, ptr %2, align 8, !tbaa !4
  %4 = getelementptr inbounds nuw i8, ptr %3, i64 80
  br label %5

5:                                                ; preds = %1, %5
  %indvars.iv = phi i64 [ 0, %1 ], [ %indvars.iv.next, %5 ]
  %6 = getelementptr inbounds nuw [4 x ptr], ptr %4, i64 0, i64 %indvars.iv
  %7 = load ptr, ptr %6, align 8, !tbaa !34
  tail call void @av_expr_free(ptr noundef %7) #8
  %indvars.iv.next = add nuw nsw i64 %indvars.iv, 1
  %exitcond.not = icmp eq i64 %indvars.iv.next, 4
  br i1 %exitcond.not, label %8, label %5, !llvm.loop !36

8:                                                ; preds = %5
  %9 = getelementptr inbounds nuw i8, ptr %3, i64 120
  %10 = load i32, ptr %9, align 8, !tbaa !31
  %.not = icmp eq i32 %10, 4
  br i1 %.not, label %13, label %11

11:                                               ; preds = %8
  %12 = getelementptr inbounds nuw i8, ptr %3, i64 144
  tail call void @av_frame_free(ptr noundef nonnull %12) #8
  br label %13

13:                                               ; preds = %11, %8
  %14 = getelementptr inbounds nuw i8, ptr %3, i64 192
  tail call void @av_freep(ptr noundef nonnull %14) #8
  %15 = getelementptr inbounds nuw i8, ptr %3, i64 200
  tail call void @av_freep(ptr noundef nonnull %15) #8
  %16 = getelementptr inbounds nuw i8, ptr %3, i64 208
  tail call void @av_freep(ptr noundef nonnull %16) #8
  %17 = getelementptr inbounds nuw i8, ptr %3, i64 216
  tail call void @av_freep(ptr noundef nonnull %17) #8
  ret void
}